(dp0
S'972760'
p1
(lp2
(I187910
F0.007384274574987642
tp3
a(I173243
F0.007151944555610479
tp4
a(I172209
F0.007136733651655957
tp5
a(I169333
F0.007093722590360851
tp6
a(I168479
F0.007080178856203658
tp7
a(I167583
F0.0070669963316856155
tp8
a(I164977
F0.007029435329757786
tp9
a(I162555
F0.006994527980622837
tp10
a(I159674
F0.0069515169193771625
tp11
a(I157587
F0.006921549236777064
tp12
a(I157588
F0.006921549236777064
tp13
a(I149720
F0.006809311248344043
tp14
a(I149721
F0.006809311248344043
tp15
a(I145960
F0.006758002897528423
tp16
a(I144462
F0.006737545548986653
tp17
a(I140366
F0.006680810247652002
tp18
a(I137868
F0.0066463091295106275
tp19
a(I134378
F0.006598691181463174
tp20
a(I132911
F0.006578915929560059
tp21
a(I130794
F0.006550661646861098
tp22
a(I127273
F0.006502716878695007
tp23
a(I127274
F0.006502716878695007
tp24
a(I126962
F0.006498580324270885
tp25
a(I123439
F0.006451467037172516
tp26
a(I120404
F0.006411900696243204
tp27
a(I119397
F0.006398263545229857
tp28
a(I116554
F0.006359473819327731
tp29
a(I109796
F0.0062688315920415225
tp30
a(I109570
F0.0062662503048442906
tp31
a(I109223
F0.00626112781992091
tp32
a(I106150
F0.006219605341225902
tp33
a(I106151
F0.006219605341225902
tp34
a(I105652
F0.0062126266553138906
tp35
a(I104981
F0.006203472405338606
tp36
a(I104640
F0.006198958078299555
tp37
a(I103678
F0.006185657310677212
tp38
a(I103679
F0.006185657310677212
tp39
a(I102515
F0.006170578984280772
tp40
a(I101127
F0.006151844791201186
tp41
a(I100982
F0.006149806374394463
tp42
a(I99980
F0.006135768077558082
tp43
a(I98685
F0.0061182855546712805
tp44
a(I91131
F0.006013741346020761
tp45
a(I90750
F0.006009128727385071
tp46
a(I90412
F0.00600455875304004
tp47
a(I90317
F0.006003044769105289
tp48
a(I90318
F0.006003044769105289
tp49
a(I89898
F0.005997034781710331
tp50
a(I89804
F0.00599554363311913
tp51
a(I87629
F0.005963827397726149
tp52
asS'9955218'
p53
(lp54
(I187909
F0.003976147848070269
tp55
a(I179886
F0.003906314399973383
tp56
a(I175292
F0.0038682252747138674
tp57
a(I173242
F0.0038510470684056425
tp58
a(I167582
F0.0038053057170614854
tp59
a(I161074
F0.003754452579797711
tp60
a(I161075
F0.003754452579797711
tp61
a(I156314
F0.0037167494876763373
tp62
a(I153748
F0.003697383143705084
tp63
a(I153175
F0.003692753986744743
tp64
a(I151989
F0.0036837304169550175
tp65
a(I150826
F0.0036750027558424274
tp66
a(I148567
F0.0036583617239020496
tp67
a(I147515
F0.0036504157661964333
tp68
a(I145959
F0.0036389246371306893
tp69
a(I145446
F0.003635201921666223
tp70
a(I144951
F0.003631530555656109
tp71
a(I142616
F0.003613896968884748
tp72
a(I142617
F0.003613896968884748
tp73
a(I140824
F0.003600585704418419
tp74
a(I137487
F0.003575807843598616
tp75
a(I135879
F0.0035642334193505456
tp76
a(I135506
F0.0035614167812616448
tp77
a(I135126
F0.0035586296372903913
tp78
a(I134738
F0.003555871376177801
tp79
a(I134009
F0.0035504391505456483
tp80
a(I12672
F0.0035504391505456483
tp81
a(I21879
F0.0035504391505456483
tp82
a(I128790
F0.003512888285972851
tp83
a(I128182
F0.00350825912901251
tp84
a(I128183
F0.00350825912901251
tp85
a(I125417
F0.003488369976443971
tp86
a(I123740
F0.003475890980995475
tp87
a(I122296
F0.003465920908437583
tp88
a(I120154
F0.00345070706393399
tp89
a(I119396
F0.0034452188320468462
tp90
a(I117952
F0.0034345706194836307
tp91
a(I116553
F0.0034243320565610857
tp92
a(I114930
F0.0034128645063614582
tp93
a(I114931
F0.0034128645063614582
tp94
a(I114497
F0.0034096768058025024
tp95
a(I113873
F0.0034049657126164496
tp96
a(I113871
F0.0034049657126164496
tp97
a(I113872
F0.0034049657126164496
tp98
a(I113224
F0.0034003365556294915
tp99
a(I112437
F0.003394286981235028
tp100
a(I112438
F0.003394286981235028
tp101
a(I111415
F0.0033869133845887676
tp102
a(I110614
F0.003381158137317008
tp103
a(I110615
F0.003381158137317008
tp104
asS'95095'
p105
(lp106
(I176394
F0.03570299977647059
tp107
a(I154364
F0.034090117764705885
tp108
a(I153749
F0.034046736448284314
tp109
a(I143550
F0.03334163332965686
tp110
a(I143093
F0.03330959391397059
tp111
a(I111021
F0.031161186062990193
tp112
a(I107588
F0.030933612156127454
tp113
a(I106344
F0.03085052011764706
tp114
a(I105158
F0.030770152904901957
tp115
a(I99100
F0.030365054642892155
tp116
a(I97454
F0.03025277636838235
tp117
a(I83217
F0.029265093900735294
tp118
a(I78210
F0.02889689731519608
tp119
a(I77051
F0.028814155942892158
tp120
a(I76360
F0.02876382603504902
tp121
a(I76289
F0.028758849423284313
tp122
a(I74657
F0.028642345255637258
tp123
a(I73526
F0.028553886219852942
tp124
a(I73525
F0.028553886219852942
tp125
a(I73101
F0.02852208435980392
tp126
a(I63578
F0.02779339774264706
tp127
a(I63029
F0.027746900785294116
tp128
a(I62421
F0.027701269513235295
tp129
a(I62267
F0.027691600938970586
tp130
a(I62020
F0.027672377464705883
tp131
a(I59773
F0.027490968244362746
tp132
a(I58142
F0.0273526859127451
tp133
a(I56949
F0.02724848984852941
tp134
a(I56007
F0.027166650913235297
tp135
a(I55027
F0.02707992663897059
tp136
a(I54733
F0.02705499274754902
tp137
a(I53865
F0.026979271337009805
tp138
a(I52150
F0.02683450470857843
tp139
a(I51941
F0.026816432881862747
tp140
a(I47550
F0.02641652720906863
tp141
a(I47479
F0.02640889175
tp142
a(I46081
F0.02628079167990196
tp143
a(I45370
F0.026216523399019608
tp144
a(I45112
F0.026193723417156863
tp145
a(I41258
F0.025799498569117646
tp146
a(I41112
F0.02578468002107843
tp147
a(I40920
F0.025764083425980393
tp148
a(I40196
F0.025687641831127452
tp149
a(I39328
F0.025598404019362746
tp150
a(I38812
F0.025544236502205882
tp151
a(I37548
F0.025406226644362748
tp152
a(I36778
F0.02532039313480392
tp153
a(I35110
F0.02513221592720588
tp154
a(I34989
F0.02511754273357843
tp155
a(I34766
F0.025087345467892156
tp156
as.